target datalayout = "e-m:e-p270:32:32-p271:32:32-p272:64:64-i64:64-i128:128-f80:128-n8:16:32:64-S128"
target triple = "x86_64-pc-linux-gnu"

%struct.macroblockd = type { i32, i32, i32, i8, [3 x %struct.macroblockd_plane], %struct.TileInfo, ptr, i8, i8, i8, i8, ptr, ptr, ptr, ptr, ptr, i32, i32, i32, i32, i32, [2 x ptr], ptr, [3 x ptr], [3 x [32 x i8]], ptr, [32 x i8], ptr, ptr, [32 x i8], [3 x %struct.WienerInfo], [3 x %struct.SgrprojInfo], i8, i8, [29 x [8 x %struct.candidate_mv]], [29 x [8 x i16]], i8, i8, [8 x i8], ptr, i32, [8 x i32], [8 x i32], i32, i32, ptr, ptr, i8, [4 x i8], [4 x i8], [7 x i8], [32768 x i8], %struct.cfl_ctx, [2 x i16], ptr, [2 x ptr] }
%struct.macroblockd_plane = type { i8, i32, i32, %struct.buf_2d, [2 x %struct.buf_2d], ptr, ptr, [8 x [2 x i16]], ptr, i8, i8, [8 x [19 x ptr]], [8 x [19 x ptr]] }
%struct.buf_2d = type { ptr, ptr, i32, i32, i32 }
%struct.TileInfo = type { i32, i32, i32, i32, i32, i32 }
%struct.WienerInfo = type { [8 x i16], [8 x i16] }
%struct.SgrprojInfo = type { i32, [2 x i32] }
%struct.candidate_mv = type { %union.int_mv, %union.int_mv }
%union.int_mv = type { i32 }
%struct.cfl_ctx = type { [1024 x i16], [1024 x i16], [2 x i32], i32, [2 x [32 x i16]], i32, i32, i32, i32, i32, i32 }

; Function Attrs: nounwind uwtable
define internal i32 @get_pred_context_last3_or_gld(ptr noundef %0) #0 {
  %2 = alloca ptr, align 8
  %3 = alloca ptr, align 8
  %4 = alloca i32, align 4
  %5 = alloca i32, align 4
  %6 = alloca i32, align 4
  store ptr %0, ptr %2, align 8
  %7 = load ptr, ptr %2, align 8
  %8 = getelementptr inbounds nuw %struct.macroblockd, ptr %7, i32 0, i32 38
  %9 = getelementptr inbounds [8 x i8], ptr %8, i64 0, i64 0
  store ptr %9, ptr %3, align 8
  %10 = load ptr, ptr %3, align 8
  %11 = getelementptr inbounds i8, ptr %10, i64 3
  %12 = load i8, ptr %11, align 1
  %13 = zext i8 %12 to i32
  store i32 %13, ptr %4, align 4
  %14 = load ptr, ptr %3, align 8
  %15 = getelementptr inbounds i8, ptr %14, i64 4
  %16 = load i8, ptr %15, align 1
  %17 = zext i8 %16 to i32
  store i32 %17, ptr %5, align 4
  %18 = load i32, ptr %4, align 4
  %19 = load i32, ptr %5, align 4
  %20 = icmp eq i32 %18, %19
  br i1 %20, label %21, label %22

21:                                               ; preds = %1
  br label %27

22:                                               ; preds = %1
  %23 = load i32, ptr %4, align 4
  %24 = load i32, ptr %5, align 4
  %25 = icmp slt i32 %23, %24
  %26 = select i1 %25, i32 0, i32 2
  br label %27

27:                                               ; preds = %22, %21
  %28 = phi i32 [ 1, %21 ], [ %26, %22 ]
  store i32 %28, ptr %6, align 4
  %29 = load i32, ptr %6, align 4
  ret i32 %29
}

; Function Attrs: nounwind uwtable
define hidden i32 @av1_get_pred_context_single_ref_p5(ptr noundef %0) #0 {
  %2 = alloca ptr, align 8
  store ptr %0, ptr %2, align 8
  %3 = load ptr, ptr %2, align 8
  %4 = call i32 @get_pred_context_last3_or_gld(ptr noundef %3)
  ret i32 %4
}